; Function Attrs: nounwind uwtable
define internal fastcc range(i32 -2147483647, -2147483648) i32 @find_snap_point_y(ptr noundef %0, i32 noundef %1, i32 noundef %2, i32 noundef %3) unnamed_addr #0 {
  %5 = tail call i32 @lv_obj_get_scroll_snap_y(ptr noundef %0) #5
  %6 = icmp eq i32 %5, 0
  br i1 %6, label %61, label %7

7:                                                ; preds = %4
  %8 = tail call ptr @lv_obj_get_style_prop(ptr noundef %0, i32 noundef 0, i8 noundef zeroext 16) #5
  %9 = ptrtoint ptr %8 to i64
  %.sroa.0.0.extract.trunc.i = trunc i64 %9 to i32
  %10 = tail call ptr @lv_obj_get_style_prop(ptr noundef %0, i32 noundef 0, i8 noundef zeroext 17) #5
  %11 = ptrtoint ptr %10 to i64
  %.sroa.0.0.extract.trunc.i52 = trunc i64 %11 to i32
  %12 = tail call i32 @lv_obj_get_child_count(ptr noundef %0) #5
  %.not55 = icmp eq i32 %12, 0
  br i1 %.not55, label %._crit_edge.thread, label %.lr.ph

.lr.ph:                                           ; preds = %7
  %13 = getelementptr inbounds nuw i8, ptr %0, i64 16
  %14 = getelementptr inbounds nuw i8, ptr %0, i64 40
  %15 = getelementptr inbounds nuw i8, ptr %0, i64 44
  %16 = add i32 %.sroa.0.0.extract.trunc.i52, %.sroa.0.0.extract.trunc.i
  %17 = getelementptr inbounds nuw i8, ptr %0, i64 52
  %wide.trip.count = zext i32 %12 to i64
  br label %18

18:                                               ; preds = %.lr.ph, %58
  %indvars.iv = phi i64 [ 0, %.lr.ph ], [ %indvars.iv.next, %58 ]
  %.04754 = phi i32 [ 536870911, %.lr.ph ], [ %.1, %58 ]
  %19 = load ptr, ptr %13, align 8, !tbaa !42
  %20 = load ptr, ptr %19, align 8, !tbaa !43
  %21 = getelementptr inbounds nuw ptr, ptr %20, i64 %indvars.iv
  %22 = load ptr, ptr %21, align 8, !tbaa !45
  %23 = tail call zeroext i1 @lv_obj_has_flag_any(ptr noundef %22, i32 noundef 262145) #5
  br i1 %23, label %58, label %24

24:                                               ; preds = %18
  %25 = tail call zeroext i1 @lv_obj_has_flag(ptr noundef %22, i32 noundef 4096) #5
  br i1 %25, label %26, label %58

26:                                               ; preds = %24
  switch i32 %5, label %58 [
    i32 1, label %27
    i32 2, label %32
    i32 3, label %37
  ]

27:                                               ; preds = %26
  %28 = getelementptr inbounds nuw i8, ptr %22, i64 44
  %29 = load i32, ptr %28, align 4, !tbaa !18
  %30 = load i32, ptr %15, align 4, !tbaa !18
  %31 = add nsw i32 %30, %.sroa.0.0.extract.trunc.i
  br label %50

32:                                               ; preds = %26
  %33 = getelementptr inbounds nuw i8, ptr %22, i64 52
  %34 = load i32, ptr %33, align 4, !tbaa !21
  %35 = load i32, ptr %17, align 4, !tbaa !21
  %36 = sub nsw i32 %35, %.sroa.0.0.extract.trunc.i52
  br label %50

37:                                               ; preds = %26
  %38 = getelementptr inbounds nuw i8, ptr %22, i64 40
  %39 = getelementptr inbounds nuw i8, ptr %22, i64 44
  %40 = load i32, ptr %39, align 4, !tbaa !18
  %41 = tail call i32 @lv_area_get_height(ptr noundef nonnull %38) #5
  %42 = sdiv i32 %41, 2
  %43 = add nsw i32 %42, %40
  %44 = load i32, ptr %15, align 4, !tbaa !18
  %45 = add nsw i32 %44, %.sroa.0.0.extract.trunc.i
  %46 = tail call i32 @lv_area_get_height(ptr noundef nonnull %14) #5
  %47 = sub i32 %46, %16
  %48 = sdiv i32 %47, 2
  %49 = add nsw i32 %45, %48
  br label %50

50:                                               ; preds = %37, %32, %27
  %.045 = phi i32 [ %43, %37 ], [ %34, %32 ], [ %29, %27 ]
  %.044 = phi i32 [ %49, %37 ], [ %36, %32 ], [ %31, %27 ]
  %51 = add nsw i32 %.045, %3
  %.not = icmp slt i32 %51, %1
  %.not51 = icmp sgt i32 %51, %2
  %or.cond = or i1 %.not, %.not51
  br i1 %or.cond, label %58, label %52

52:                                               ; preds = %50
  %53 = sub nsw i32 %51, %.044
  %54 = tail call i32 @llvm.abs.i32(i32 %53, i1 true)
  %55 = tail call i32 @llvm.abs.i32(i32 %.04754, i1 true)
  %56 = icmp samesign ult i32 %54, %55
  %spec.select = select i1 %56, i32 %53, i32 %.04754
  %57 = freeze i32 %spec.select
  br label %58

58:                                               ; preds = %26, %52, %50, %24, %18
  %.1 = phi i32 [ %.04754, %18 ], [ %.04754, %24 ], [ %.04754, %26 ], [ %57, %52 ], [ %.04754, %50 ]
  %indvars.iv.next = add nuw nsw i64 %indvars.iv, 1
  %exitcond.not = icmp eq i64 %indvars.iv.next, %wide.trip.count
  br i1 %exitcond.not, label %._crit_edge, label %18, !llvm.loop !46

._crit_edge:                                      ; preds = %58
  %59 = icmp eq i32 %.1, 536870911
  %60 = sub nsw i32 0, %.1
  br i1 %59, label %._crit_edge.thread, label %61

._crit_edge.thread:                               ; preds = %7, %._crit_edge
  br label %61

61:                                               ; preds = %._crit_edge.thread, %._crit_edge, %4
  %.0 = phi i32 [ 536870911, %4 ], [ 536870911, %._crit_edge.thread ], [ %60, %._crit_edge ]
  ret i32 %.0
}